target datalayout = "e-m:e-p270:32:32-p271:32:32-p272:64:64-i64:64-i128:128-f80:128-n8:16:32:64-S128"
target triple = "x86_64-pc-linux-gnu"

@proto_tcp = internal global i32 0, align 4
@.str.15 = private unnamed_addr constant [9 x i8] c"tcp.port\00", align 1

; Function Attrs: nounwind uwtable
define internal zeroext i16 @pntoh16(ptr noundef %0) #0 {
  %2 = alloca ptr, align 8
  store ptr %0, ptr %2, align 8
  %3 = load ptr, ptr %2, align 8
  %4 = getelementptr i8, ptr %3, i64 0
  %5 = load i8, ptr %4, align 1
  %6 = zext i8 %5 to i16
  %7 = zext i16 %6 to i32
  %8 = shl i32 %7, 8
  %9 = load ptr, ptr %2, align 8
  %10 = getelementptr i8, ptr %9, i64 1
  %11 = load i8, ptr %10, align 1
  %12 = zext i8 %11 to i16
  %13 = zext i16 %12 to i32
  %14 = shl i32 %13, 0
  %15 = or i32 %8, %14
  %16 = trunc i32 %15 to i16
  ret i16 %16
}

; Function Attrs: nounwind uwtable
define internal i32 @capture_tcp(ptr noundef %0, i32 noundef %1, i32 noundef %2, ptr noundef %3, ptr noundef %4) #0 {
  %6 = alloca i32, align 4
  %7 = alloca ptr, align 8
  %8 = alloca i32, align 4
  %9 = alloca i32, align 4
  %10 = alloca ptr, align 8
  %11 = alloca ptr, align 8
  %12 = alloca i16, align 2
  %13 = alloca i16, align 2
  %14 = alloca i16, align 2
  %15 = alloca i16, align 2
  store ptr %0, ptr %7, align 8
  store i32 %1, ptr %8, align 4
  store i32 %2, ptr %9, align 4
  store ptr %3, ptr %10, align 8
  store ptr %4, ptr %11, align 8
  %16 = load i32, ptr %8, align 4
  %17 = add i32 %16, 4
  %18 = load i32, ptr %8, align 4
  %19 = icmp ugt i32 %17, %18
  br i1 %19, label %20, label %25

20:                                               ; preds = %5
  %21 = load i32, ptr %8, align 4
  %22 = add i32 %21, 4
  %23 = load i32, ptr %9, align 4
  %24 = icmp ule i32 %22, %23
  br i1 %24, label %26, label %25

25:                                               ; preds = %20, %5
  store i32 0, ptr %6, align 4
  br label %84

26:                                               ; preds = %20
  %27 = load ptr, ptr %10, align 8
  %28 = load i32, ptr @proto_tcp, align 4
  call void @capture_dissector_increment_count(ptr noundef %27, i32 noundef %28)
  %29 = load ptr, ptr %7, align 8
  %30 = load i32, ptr %8, align 4
  %31 = sext i32 %30 to i64
  %32 = getelementptr i8, ptr %29, i64 %31
  %33 = call zeroext i16 @pntoh16(ptr noundef %32)
  store i16 %33, ptr %12, align 2
  %34 = load ptr, ptr %7, align 8
  %35 = load i32, ptr %8, align 4
  %36 = add i32 %35, 2
  %37 = sext i32 %36 to i64
  %38 = getelementptr i8, ptr %34, i64 %37
  %39 = call zeroext i16 @pntoh16(ptr noundef %38)
  store i16 %39, ptr %13, align 2
  %40 = load i16, ptr %12, align 2
  %41 = zext i16 %40 to i32
  %42 = load i16, ptr %13, align 2
  %43 = zext i16 %42 to i32
  %44 = icmp sgt i32 %41, %43
  br i1 %44, label %45, label %48

45:                                               ; preds = %26
  %46 = load i16, ptr %13, align 2
  store i16 %46, ptr %14, align 2
  %47 = load i16, ptr %12, align 2
  store i16 %47, ptr %15, align 2
  br label %51

48:                                               ; preds = %26
  %49 = load i16, ptr %12, align 2
  store i16 %49, ptr %14, align 2
  %50 = load i16, ptr %13, align 2
  store i16 %50, ptr %15, align 2
  br label %51

51:                                               ; preds = %48, %45
  %52 = load i16, ptr %14, align 2
  %53 = zext i16 %52 to i32
  %54 = icmp ne i32 %53, 0
  br i1 %54, label %55, label %67

55:                                               ; preds = %51
  %56 = load i16, ptr %14, align 2
  %57 = zext i16 %56 to i32
  %58 = load ptr, ptr %7, align 8
  %59 = load i32, ptr %8, align 4
  %60 = add i32 %59, 20
  %61 = load i32, ptr %9, align 4
  %62 = load ptr, ptr %10, align 8
  %63 = load ptr, ptr %11, align 8
  %64 = call i32 @try_capture_dissector(ptr noundef @.str.15, i32 noundef %57, ptr noundef %58, i32 noundef %60, i32 noundef %61, ptr noundef %62, ptr noundef %63)
  %65 = icmp ne i32 %64, 0
  br i1 %65, label %66, label %67

66:                                               ; preds = %55
  store i32 1, ptr %6, align 4
  br label %84

67:                                               ; preds = %55, %51
  %68 = load i16, ptr %15, align 2
  %69 = zext i16 %68 to i32
  %70 = icmp ne i32 %69, 0
  br i1 %70, label %71, label %83

71:                                               ; preds = %67
  %72 = load i16, ptr %15, align 2
  %73 = zext i16 %72 to i32
  %74 = load ptr, ptr %7, align 8
  %75 = load i32, ptr %8, align 4
  %76 = add i32 %75, 20
  %77 = load i32, ptr %9, align 4
  %78 = load ptr, ptr %10, align 8
  %79 = load ptr, ptr %11, align 8
  %80 = call i32 @try_capture_dissector(ptr noundef @.str.15, i32 noundef %73, ptr noundef %74, i32 noundef %76, i32 noundef %77, ptr noundef %78, ptr noundef %79)
  %81 = icmp ne i32 %80, 0
  br i1 %81, label %82, label %83

82:                                               ; preds = %71
  store i32 1, ptr %6, align 4
  br label %84

83:                                               ; preds = %71, %67
  store i32 1, ptr %6, align 4
  br label %84

84:                                               ; preds = %83, %82, %66, %25
  %85 = load i32, ptr %6, align 4
  ret i32 %85
}