; Function Attrs: nounwind uwtable
define internal range(i32 0, 2) i32 @capture_tcp(ptr noundef %0, i32 noundef %1, i32 noundef %2, ptr noundef %3, ptr noundef %4) #0 {
  %6 = icmp ugt i32 %1, -5
  %7 = add i32 %1, 4
  %.not = icmp ugt i32 %7, %2
  %or.cond = or i1 %6, %.not
  br i1 %or.cond, label %33, label %8

8:                                                ; preds = %5
  %9 = load i32, ptr @proto_tcp, align 4
  tail call void @capture_dissector_increment_count(ptr noundef %3, i32 noundef %9) #20
  %10 = sext i32 %1 to i64
  %11 = getelementptr i8, ptr %0, i64 %10
  %.val = load i8, ptr %11, align 1
  %12 = getelementptr i8, ptr %11, i64 1
  %.val42 = load i8, ptr %12, align 1
  %13 = zext i8 %.val to i16
  %14 = shl nuw i16 %13, 8
  %15 = zext i8 %.val42 to i16
  %16 = or disjoint i16 %14, %15
  %17 = add nuw i32 %1, 2
  %18 = sext i32 %17 to i64
  %19 = getelementptr i8, ptr %0, i64 %18
  %.val43 = load i8, ptr %19, align 1
  %20 = getelementptr i8, ptr %19, i64 1
  %.val44 = load i8, ptr %20, align 1
  %21 = zext i8 %.val43 to i16
  %22 = shl nuw i16 %21, 8
  %23 = zext i8 %.val44 to i16
  %24 = or disjoint i16 %22, %23
  %. = tail call i16 @llvm.umin.i16(i16 %16, i16 %24)
  %.40 = tail call i16 @llvm.umax.i16(i16 %16, i16 %24)
  %.not36 = icmp eq i16 %., 0
  br i1 %.not36, label %29, label %25

25:                                               ; preds = %8
  %26 = zext i16 %. to i32
  %27 = add i32 %1, 20
  %28 = tail call i32 @try_capture_dissector(ptr noundef nonnull @.str.15, i32 noundef %26, ptr noundef nonnull %0, i32 noundef %27, i32 noundef %2, ptr noundef %3, ptr noundef %4) #20
  %.not37.not = icmp eq i32 %28, 0
  br i1 %.not37.not, label %30, label %33

29:                                               ; preds = %8
  %.not38.old = icmp eq i16 %.40, 0
  br i1 %.not38.old, label %33, label %._crit_edge

._crit_edge:                                      ; preds = %29
  %.pre = add i32 %1, 20
  br label %30

30:                                               ; preds = %._crit_edge, %25
  %.pre-phi = phi i32 [ %.pre, %._crit_edge ], [ %27, %25 ]
  %31 = zext i16 %.40 to i32
  %32 = tail call i32 @try_capture_dissector(ptr noundef nonnull @.str.15, i32 noundef %31, ptr noundef nonnull %0, i32 noundef %.pre-phi, i32 noundef %2, ptr noundef %3, ptr noundef %4) #20
  br label %33

33:                                               ; preds = %30, %29, %25, %5
  %.030 = phi i32 [ 0, %5 ], [ 1, %25 ], [ 1, %30 ], [ 1, %29 ]
  ret i32 %.030
}